00000000  E802000000        call dword 0x7
00000005  EBFE              jmp short 0x5
00000007  8D4C2404          lea ecx,[esp+0x4]
0000000B  83E4F0            and esp,byte -0x10
0000000E  FF71FC            push dword [ecx-0x4]
00000011  55                push ebp
00000012  89E5              mov ebp,esp
00000014  51                push ecx
00000015  83EC24            sub esp,byte +0x24
00000018  C745E8208D0B00    mov dword [ebp-0x18],0xb8d20
0000001F  C745E430170000    mov dword [ebp-0x1c],0x1730
00000026  C645F701          mov byte [ebp-0x9],0x1
0000002A  C745F000000000    mov dword [ebp-0x10],0x0
00000031  C745EC00000000    mov dword [ebp-0x14],0x0
00000038  EB43              jmp short 0x7d
0000003A  8B55EC            mov edx,[ebp-0x14]
0000003D  8B45E8            mov eax,[ebp-0x18]
00000040  01C2              add edx,eax
00000042  8B4DF0            mov ecx,[ebp-0x10]
00000045  8B45E4            mov eax,[ebp-0x1c]
00000048  01C8              add eax,ecx
0000004A  0FB600            movzx eax,byte [eax]
0000004D  8802              mov [edx],al
0000004F  8B45EC            mov eax,[ebp-0x14]
00000052  8D5001            lea edx,[eax+0x1]
00000055  8B45E8            mov eax,[ebp-0x18]
00000058  01D0              add eax,edx
0000005A  8B55F0            mov edx,[ebp-0x10]
0000005D  83C201            add edx,byte +0x1
00000060  8810              mov [eax],dl
00000062  8345F001          add dword [ebp-0x10],byte +0x1
00000066  8B55F0            mov edx,[ebp-0x10]
00000069  8B45E4            mov eax,[ebp-0x1c]
0000006C  01D0              add eax,edx
0000006E  0FB600            movzx eax,byte [eax]
00000071  84C0              test al,al
00000073  7504              jnz 0x79
00000075  C645F700          mov byte [ebp-0x9],0x0
00000079  8345EC02          add dword [ebp-0x14],byte +0x2
0000007D  807DF701          cmp byte [ebp-0x9],0x1
00000081  74B7              jz 0x3a
00000083  6A0F              push byte +0xf
00000085  6A16              push byte +0x16
00000087  6A00              push byte +0x0
00000089  6A58              push byte +0x58
0000008B  E820030000        call dword 0x3b0
00000090  83C410            add esp,byte +0x10
00000093  6A0F              push byte +0xf
00000095  6AFF              push byte -0x1
00000097  6AFF              push byte -0x1
00000099  6A59              push byte +0x59
0000009B  E810030000        call dword 0x3b0
000000A0  83C410            add esp,byte +0x10
000000A3  6A0F              push byte +0xf
000000A5  6AFF              push byte -0x1
000000A7  6AFF              push byte -0x1
000000A9  6A5A              push byte +0x5a
000000AB  E800030000        call dword 0x3b0
000000B0  83C410            add esp,byte +0x10
000000B3  C745E050170000    mov dword [ebp-0x20],0x1750
000000BA  83EC04            sub esp,byte +0x4
000000BD  6A17              push byte +0x17
000000BF  6A00              push byte +0x0
000000C1  FF75E0            push dword [ebp-0x20]
000000C4  E847010000        call dword 0x210
000000C9  83C410            add esp,byte +0x10
000000CC  83EC0C            sub esp,byte +0xc
000000CF  6890170000        push dword 0x1790
000000D4  E8F7000000        call dword 0x1d0
000000D9  83C410            add esp,byte +0x10
000000DC  83EC0C            sub esp,byte +0xc
000000DF  FF75E0            push dword [ebp-0x20]
000000E2  E8E9000000        call dword 0x1d0
000000E7  83C410            add esp,byte +0x10
000000EA  83EC0C            sub esp,byte +0xc
000000ED  6890170000        push dword 0x1790
000000F2  E8D9000000        call dword 0x1d0
000000F7  83C410            add esp,byte +0x10
000000FA  C745DC94170000    mov dword [ebp-0x24],0x1794
00000101  83EC0C            sub esp,byte +0xc
00000104  FF75DC            push dword [ebp-0x24]
00000107  E8C4000000        call dword 0x1d0
0000010C  83C410            add esp,byte +0x10
0000010F  90                nop
00000110  8B4DFC            mov ecx,[ebp-0x4]
00000113  C9                leave
00000114  8D61FC            lea esp,[ecx-0x4]
00000117  C3                ret
00000118  55                push ebp
00000119  89E5              mov ebp,esp
0000011B  83EC14            sub esp,byte +0x14
0000011E  8B4508            mov eax,[ebp+0x8]
00000121  668945EC          mov [ebp-0x14],ax
00000125  0FB745EC          movzx eax,word [ebp-0x14]
00000129  89C2              mov edx,eax
0000012B  EC                in al,dx
0000012C  8845FF            mov [ebp-0x1],al
0000012F  0FB645FF          movzx eax,byte [ebp-0x1]
00000133  C9                leave
00000134  C3                ret
00000135  55                push ebp
00000136  89E5              mov ebp,esp
00000138  83EC14            sub esp,byte +0x14
0000013B  8B4508            mov eax,[ebp+0x8]
0000013E  668945EC          mov [ebp-0x14],ax
00000142  0FB745EC          movzx eax,word [ebp-0x14]
00000146  89C2              mov edx,eax
00000148  66ED              in ax,dx
0000014A  668945FE          mov [ebp-0x2],ax
0000014E  0FB745FE          movzx eax,word [ebp-0x2]
00000152  C9                leave
00000153  C3                ret
00000154  55                push ebp
00000155  89E5              mov ebp,esp
00000157  83EC08            sub esp,byte +0x8
0000015A  8B5508            mov edx,[ebp+0x8]
0000015D  8B450C            mov eax,[ebp+0xc]
00000160  668955FC          mov [ebp-0x4],dx
00000164  8845F8            mov [ebp-0x8],al
00000167  0FB645F8          movzx eax,byte [ebp-0x8]
0000016B  0FB755FC          movzx edx,word [ebp-0x4]
0000016F  EE                out dx,al
00000170  90                nop
00000171  C9                leave
00000172  C3                ret
00000173  55                push ebp
00000174  89E5              mov ebp,esp
00000176  83EC08            sub esp,byte +0x8
00000179  8B5508            mov edx,[ebp+0x8]
0000017C  8B450C            mov eax,[ebp+0xc]
0000017F  668955FC          mov [ebp-0x4],dx
00000183  668945F8          mov [ebp-0x8],ax
00000187  0FB745F8          movzx eax,word [ebp-0x8]
0000018B  0FB755FC          movzx edx,word [ebp-0x4]
0000018F  66EF              out dx,ax
00000191  90                nop
00000192  C9                leave
00000193  C3                ret
00000194  55                push ebp
00000195  89E5              mov ebp,esp
00000197  83EC10            sub esp,byte +0x10
0000019A  C745FC00000000    mov dword [ebp-0x4],0x0
000001A1  EB19              jmp short 0x1bc
000001A3  8B55FC            mov edx,[ebp-0x4]
000001A6  8B450C            mov eax,[ebp+0xc]
000001A9  01C2              add edx,eax
000001AB  8B4DFC            mov ecx,[ebp-0x4]
000001AE  8B4508            mov eax,[ebp+0x8]
000001B1  01C8              add eax,ecx
000001B3  0FB600            movzx eax,byte [eax]
000001B6  8802              mov [edx],al
000001B8  8345FC01          add dword [ebp-0x4],byte +0x1
000001BC  8B45FC            mov eax,[ebp-0x4]
000001BF  3B4510            cmp eax,[ebp+0x10]
000001C2  7CDF              jl 0x1a3
000001C4  90                nop
000001C5  C9                leave
000001C6  C3                ret
000001C7  6690              xchg ax,ax
000001C9  6690              xchg ax,ax
000001CB  6690              xchg ax,ax
000001CD  6690              xchg ax,ax
000001CF  90                nop
000001D0  55                push ebp
000001D1  89E5              mov ebp,esp
000001D3  83EC14            sub esp,byte +0x14
000001D6  8B4508            mov eax,[ebp+0x8]
000001D9  B9FFFFFFFF        mov ecx,0xffffffff
000001DE  8945FC            mov [ebp-0x4],eax
000001E1  8B45FC            mov eax,[ebp-0x4]
000001E4  890424            mov [esp],eax
000001E7  C7442404FFFFFFFF  mov dword [esp+0x4],0xffffffff
000001EF  C7442408FFFFFFFF  mov dword [esp+0x8],0xffffffff
000001F7  894DF8            mov [ebp-0x8],ecx
000001FA  E811000000        call dword 0x210
000001FF  83C414            add esp,byte +0x14
00000202  5D                pop ebp
00000203  C3                ret
00000204  90                nop
00000205  90                nop
00000206  90                nop
00000207  90                nop
00000208  90                nop
00000209  90                nop
0000020A  90                nop
0000020B  90                nop
0000020C  90                nop
0000020D  90                nop
0000020E  90                nop
0000020F  90                nop
00000210  55                push ebp
00000211  89E5              mov ebp,esp
00000213  53                push ebx
00000214  56                push esi
00000215  83EC24            sub esp,byte +0x24
00000218  8B4510            mov eax,[ebp+0x10]
0000021B  8B4D0C            mov ecx,[ebp+0xc]
0000021E  8B5508            mov edx,[ebp+0x8]
00000221  8955F4            mov [ebp-0xc],edx
00000224  894DF0            mov [ebp-0x10],ecx
00000227  8945EC            mov [ebp-0x14],eax
0000022A  817DF000000000    cmp dword [ebp-0x10],0x0
00000231  0F8C27000000      jl dword 0x25e
00000237  817DEC00000000    cmp dword [ebp-0x14],0x0
0000023E  0F8C1A000000      jl dword 0x25e
00000244  8B45F0            mov eax,[ebp-0x10]
00000247  8B4DEC            mov ecx,[ebp-0x14]
0000024A  890424            mov [esp],eax
0000024D  894C2404          mov [esp+0x4],ecx
00000251  E82A010000        call dword 0x380
00000256  890424            mov [esp],eax
00000259  E872000000        call dword 0x2d0
0000025E  C745E800000000    mov dword [ebp-0x18],0x0
00000265  8B45E8            mov eax,[ebp-0x18]
00000268  8B4DF4            mov ecx,[ebp-0xc]
0000026B  0FBE0401          movsx eax,byte [ecx+eax]
0000026F  3D00000000        cmp eax,0x0
00000274  0F8442000000      jz dword 0x2bc
0000027A  B80F000000        mov eax,0xf
0000027F  8B4DE8            mov ecx,[ebp-0x18]
00000282  89CA              mov edx,ecx
00000284  81C201000000      add edx,0x1
0000028A  8955E8            mov [ebp-0x18],edx
0000028D  8B55F4            mov edx,[ebp-0xc]
00000290  8A1C0A            mov bl,[edx+ecx]
00000293  8B4DF0            mov ecx,[ebp-0x10]
00000296  8B55EC            mov edx,[ebp-0x14]
00000299  0FBEF3            movsx esi,bl
0000029C  893424            mov [esp],esi
0000029F  894C2404          mov [esp+0x4],ecx
000002A3  89542408          mov [esp+0x8],edx
000002A7  C744240C0F000000  mov dword [esp+0xc],0xf
000002AF  8945E4            mov [ebp-0x1c],eax
000002B2  E8F9000000        call dword 0x3b0
000002B7  E9A9FFFFFF        jmp dword 0x265
000002BC  83C424            add esp,byte +0x24
000002BF  5E                pop esi
000002C0  5B                pop ebx
000002C1  5D                pop ebp
000002C2  C3                ret
000002C3  90                nop
000002C4  90                nop
000002C5  90                nop
000002C6  90                nop
000002C7  90                nop
000002C8  90                nop
000002C9  90                nop
000002CA  90                nop
000002CB  90                nop
000002CC  90                nop
000002CD  90                nop
000002CE  90                nop
000002CF  90                nop
000002D0  55                push ebp
000002D1  89E5              mov ebp,esp
000002D3  53                push ebx
000002D4  56                push esi
000002D5  83EC24            sub esp,byte +0x24
000002D8  8B4508            mov eax,[ebp+0x8]
000002DB  B9D4030000        mov ecx,0x3d4
000002E0  BA0E000000        mov edx,0xe
000002E5  BE02000000        mov esi,0x2
000002EA  8945F4            mov [ebp-0xc],eax
000002ED  8B45F4            mov eax,[ebp-0xc]
000002F0  8955F0            mov [ebp-0x10],edx
000002F3  99                cdq
000002F4  F7FE              idiv esi
000002F6  8945F4            mov [ebp-0xc],eax
000002F9  C70424D4030000    mov dword [esp],0x3d4
00000300  C74424040E000000  mov dword [esp+0x4],0xe
00000308  894DEC            mov [ebp-0x14],ecx
0000030B  E844FEFFFF        call dword 0x154
00000310  B8D5030000        mov eax,0x3d5
00000315  8B4DF4            mov ecx,[ebp-0xc]
00000318  C1F908            sar ecx,byte 0x8
0000031B  88CB              mov bl,cl
0000031D  C70424D5030000    mov dword [esp],0x3d5
00000324  0FB6CB            movzx ecx,bl
00000327  894C2404          mov [esp+0x4],ecx
0000032B  8945E8            mov [ebp-0x18],eax
0000032E  E821FEFFFF        call dword 0x154
00000333  B8D4030000        mov eax,0x3d4
00000338  B90F000000        mov ecx,0xf
0000033D  C70424D4030000    mov dword [esp],0x3d4
00000344  C74424040F000000  mov dword [esp+0x4],0xf
0000034C  8945E4            mov [ebp-0x1c],eax
0000034F  894DE0            mov [ebp-0x20],ecx
00000352  E8FDFDFFFF        call dword 0x154
00000357  B8D5030000        mov eax,0x3d5
0000035C  8B4DF4            mov ecx,[ebp-0xc]
0000035F  88CB              mov bl,cl
00000361  C70424D5030000    mov dword [esp],0x3d5
00000368  0FB6CB            movzx ecx,bl
0000036B  894C2404          mov [esp+0x4],ecx
0000036F  8945DC            mov [ebp-0x24],eax
00000372  E8DDFDFFFF        call dword 0x154
00000377  83C424            add esp,byte +0x24
0000037A  5E                pop esi
0000037B  5B                pop ebx
0000037C  5D                pop ebp
0000037D  C3                ret
0000037E  90                nop
0000037F  90                nop
00000380  55                push ebp
00000381  89E5              mov ebp,esp
00000383  83EC08            sub esp,byte +0x8
00000386  8B450C            mov eax,[ebp+0xc]
00000389  8B4D08            mov ecx,[ebp+0x8]
0000038C  894DFC            mov [ebp-0x4],ecx
0000038F  8945F8            mov [ebp-0x8],eax
00000392  6945F850000000    imul eax,[ebp-0x8],dword 0x50
00000399  0345FC            add eax,[ebp-0x4]
0000039C  C1E001            shl eax,byte 0x1
0000039F  83C408            add esp,byte +0x8
000003A2  5D                pop ebp
000003A3  C3                ret
000003A4  90                nop
000003A5  90                nop
000003A6  90                nop
000003A7  90                nop
000003A8  90                nop
000003A9  90                nop
000003AA  90                nop
000003AB  90                nop
000003AC  90                nop
000003AD  90                nop
000003AE  90                nop
000003AF  90                nop
000003B0  55                push ebp
000003B1  89E5              mov ebp,esp
000003B3  56                push esi
000003B4  83EC28            sub esp,byte +0x28
000003B7  8A4514            mov al,[ebp+0x14]
000003BA  8B4D10            mov ecx,[ebp+0x10]
000003BD  8B550C            mov edx,[ebp+0xc]
000003C0  8A6508            mov ah,[ebp+0x8]
000003C3  BE00800B00        mov esi,0xb8000
000003C8  8865FB            mov [ebp-0x5],ah
000003CB  8955F4            mov [ebp-0xc],edx
000003CE  894DF0            mov [ebp-0x10],ecx
000003D1  8845EF            mov [ebp-0x11],al
000003D4  8975E8            mov [ebp-0x18],esi
000003D7  807DEF00          cmp byte [ebp-0x11],0x0
000003DB  0F8504000000      jnz dword 0x3e5
000003E1  C645EF0F          mov byte [ebp-0x11],0xf
000003E5  817DF400000000    cmp dword [ebp-0xc],0x0
000003EC  0F8C27000000      jl dword 0x419
000003F2  817DF000000000    cmp dword [ebp-0x10],0x0
000003F9  0F8C1A000000      jl dword 0x419
000003FF  8B45F4            mov eax,[ebp-0xc]
00000402  8B4DF0            mov ecx,[ebp-0x10]
00000405  890424            mov [esp],eax
00000408  894C2404          mov [esp+0x4],ecx
0000040C  E86FFFFFFF        call dword 0x380
00000411  8945E4            mov [ebp-0x1c],eax
00000414  E908000000        jmp dword 0x421
00000419  E8C2010000        call dword 0x5e0
0000041E  8945E4            mov [ebp-0x1c],eax
00000421  0FBE45FB          movsx eax,byte [ebp-0x5]
00000425  3D0A000000        cmp eax,0xa
0000042A  0F8533000000      jnz dword 0x463
00000430  B84F000000        mov eax,0x4f
00000435  B9A0000000        mov ecx,0xa0
0000043A  8B55E4            mov edx,[ebp-0x1c]
0000043D  8945DC            mov [ebp-0x24],eax
00000440  89D0              mov eax,edx
00000442  99                cdq
00000443  F7F9              idiv ecx
00000445  8945E0            mov [ebp-0x20],eax
00000448  8B45E0            mov eax,[ebp-0x20]
0000044B  C704244F000000    mov dword [esp],0x4f
00000452  89442404          mov [esp+0x4],eax
00000456  E825FFFFFF        call dword 0x380
0000045B  8945E4            mov [ebp-0x1c],eax
0000045E  E919000000        jmp dword 0x47c
00000463  8A45FB            mov al,[ebp-0x5]
00000466  8B4DE4            mov ecx,[ebp-0x1c]
00000469  8B55E8            mov edx,[ebp-0x18]
0000046C  88040A            mov [edx+ecx],al
0000046F  8A45EF            mov al,[ebp-0x11]
00000472  8B4DE4            mov ecx,[ebp-0x1c]
00000475  8B55E8            mov edx,[ebp-0x18]
00000478  88440A01          mov [edx+ecx+0x1],al
0000047C  8B45E4            mov eax,[ebp-0x1c]
0000047F  0502000000        add eax,0x2
00000484  8945E4            mov [ebp-0x1c],eax
00000487  8B45E4            mov eax,[ebp-0x1c]
0000048A  890424            mov [esp],eax
0000048D  E81E000000        call dword 0x4b0
00000492  8945E4            mov [ebp-0x1c],eax
00000495  8B45E4            mov eax,[ebp-0x1c]
00000498  890424            mov [esp],eax
0000049B  E830FEFFFF        call dword 0x2d0
000004A0  83C428            add esp,byte +0x28
000004A3  5E                pop esi
000004A4  5D                pop ebp
000004A5  C3                ret
000004A6  90                nop
000004A7  90                nop
000004A8  90                nop
000004A9  90                nop
000004AA  90                nop
000004AB  90                nop
000004AC  90                nop
000004AD  90                nop
000004AE  90                nop
000004AF  90                nop
000004B0  55                push ebp
000004B1  89E5              mov ebp,esp
000004B3  83EC38            sub esp,byte +0x38
000004B6  8B4508            mov eax,[ebp+0x8]
000004B9  8945F8            mov [ebp-0x8],eax
000004BC  817DF8A00F0000    cmp dword [ebp-0x8],0xfa0
000004C3  0F8D0B000000      jnl dword 0x4d4
000004C9  8B45F8            mov eax,[ebp-0x8]
000004CC  8945FC            mov [ebp-0x4],eax
000004CF  E9F7000000        jmp dword 0x5cb
000004D4  C745F400000000    mov dword [ebp-0xc],0x0
000004DB  817DF419000000    cmp dword [ebp-0xc],0x19
000004E2  0F8D78000000      jnl dword 0x560
000004E8  B800000000        mov eax,0x0
000004ED  8B4DF4            mov ecx,[ebp-0xc]
000004F0  C7042400000000    mov dword [esp],0x0
000004F7  894C2404          mov [esp+0x4],ecx
000004FB  8945E8            mov [ebp-0x18],eax
000004FE  E87DFEFFFF        call dword 0x380
00000503  B900000000        mov ecx,0x0
00000508  0500800B00        add eax,0xb8000
0000050D  8B55F4            mov edx,[ebp-0xc]
00000510  81EA01000000      sub edx,0x1
00000516  C7042400000000    mov dword [esp],0x0
0000051D  89542404          mov [esp+0x4],edx
00000521  894DE4            mov [ebp-0x1c],ecx
00000524  8945E0            mov [ebp-0x20],eax
00000527  E854FEFFFF        call dword 0x380
0000052C  B9A0000000        mov ecx,0xa0
00000531  0500800B00        add eax,0xb8000
00000536  8B55E0            mov edx,[ebp-0x20]
00000539  891424            mov [esp],edx
0000053C  89442404          mov [esp+0x4],eax
00000540  C7442408A0000000  mov dword [esp+0x8],0xa0
00000548  894DDC            mov [ebp-0x24],ecx
0000054B  E844FCFFFF        call dword 0x194
00000550  8B45F4            mov eax,[ebp-0xc]
00000553  0501000000        add eax,0x1
00000558  8945F4            mov [ebp-0xc],eax
0000055B  E97BFFFFFF        jmp dword 0x4db
00000560  B800000000        mov eax,0x0
00000565  B918000000        mov ecx,0x18
0000056A  C7042400000000    mov dword [esp],0x0
00000571  C744240418000000  mov dword [esp+0x4],0x18
00000579  8945D8            mov [ebp-0x28],eax
0000057C  894DD4            mov [ebp-0x2c],ecx
0000057F  E8FCFDFFFF        call dword 0x380
00000584  0500800B00        add eax,0xb8000
00000589  8945F0            mov [ebp-0x10],eax
0000058C  C745EC00000000    mov dword [ebp-0x14],0x0
00000593  817DECA0000000    cmp dword [ebp-0x14],0xa0
0000059A  0F8D1A000000      jnl dword 0x5ba
000005A0  8B45EC            mov eax,[ebp-0x14]
000005A3  8B4DF0            mov ecx,[ebp-0x10]
000005A6  C6040100          mov byte [ecx+eax],0x0
000005AA  8B45EC            mov eax,[ebp-0x14]
000005AD  0501000000        add eax,0x1
000005B2  8945EC            mov [ebp-0x14],eax
000005B5  E9D9FFFFFF        jmp dword 0x593
000005BA  8B45F8            mov eax,[ebp-0x8]
000005BD  2DA0000000        sub eax,0xa0
000005C2  8945F8            mov [ebp-0x8],eax
000005C5  8B45F8            mov eax,[ebp-0x8]
000005C8  8945FC            mov [ebp-0x4],eax
000005CB  8B45FC            mov eax,[ebp-0x4]
000005CE  83C438            add esp,byte +0x38
000005D1  5D                pop ebp
000005D2  C3                ret
000005D3  90                nop
000005D4  90                nop
000005D5  90                nop
000005D6  90                nop
000005D7  90                nop
000005D8  90                nop
000005D9  90                nop
000005DA  90                nop
000005DB  90                nop
000005DC  90                nop
000005DD  90                nop
000005DE  90                nop
000005DF  90                nop
000005E0  55                push ebp
000005E1  89E5              mov ebp,esp
000005E3  56                push esi
000005E4  83EC24            sub esp,byte +0x24
000005E7  B8D4030000        mov eax,0x3d4
000005EC  B90E000000        mov ecx,0xe
000005F1  C70424D4030000    mov dword [esp],0x3d4
000005F8  C74424040E000000  mov dword [esp+0x4],0xe
00000600  8945F4            mov [ebp-0xc],eax
00000603  894DF0            mov [ebp-0x10],ecx
00000606  E849FBFFFF        call dword 0x154
0000060B  B8D5030000        mov eax,0x3d5
00000610  C70424D5030000    mov dword [esp],0x3d5
00000617  8945EC            mov [ebp-0x14],eax
0000061A  E8F9FAFFFF        call dword 0x118
0000061F  B9D4030000        mov ecx,0x3d4
00000624  BA0F000000        mov edx,0xf
00000629  0FB6F0            movzx esi,al
0000062C  C1E608            shl esi,byte 0x8
0000062F  8975F8            mov [ebp-0x8],esi
00000632  C70424D4030000    mov dword [esp],0x3d4
00000639  C74424040F000000  mov dword [esp+0x4],0xf
00000641  8955E8            mov [ebp-0x18],edx
00000644  894DE4            mov [ebp-0x1c],ecx
00000647  E808FBFFFF        call dword 0x154
0000064C  B9D5030000        mov ecx,0x3d5
00000651  C70424D5030000    mov dword [esp],0x3d5
00000658  894DE0            mov [ebp-0x20],ecx
0000065B  E8B8FAFFFF        call dword 0x118
00000660  0FB6C8            movzx ecx,al
00000663  8B55F8            mov edx,[ebp-0x8]
00000666  01CA              add edx,ecx
00000668  8955F8            mov [ebp-0x8],edx
0000066B  8B4DF8            mov ecx,[ebp-0x8]
0000066E  C1E101            shl ecx,byte 0x1
00000671  89C8              mov eax,ecx
00000673  83C424            add esp,byte +0x24
00000676  5E                pop esi
00000677  5D                pop ebp
00000678  C3                ret
00000679  90                nop
0000067A  90                nop
0000067B  90                nop
0000067C  90                nop
0000067D  90                nop
0000067E  90                nop
0000067F  90                nop
00000680  55                push ebp
00000681  89E5              mov ebp,esp
00000683  56                push esi
00000684  83EC24            sub esp,byte +0x24
00000687  C745F800000000    mov dword [ebp-0x8],0x0
0000068E  817DF819000000    cmp dword [ebp-0x8],0x19
00000695  0F8D6B000000      jnl dword 0x706
0000069B  C745F400000000    mov dword [ebp-0xc],0x0
000006A2  817DF450000000    cmp dword [ebp-0xc],0x50
000006A9  0F8D42000000      jnl dword 0x6f1
000006AF  B820000000        mov eax,0x20
000006B4  B90F000000        mov ecx,0xf
000006B9  8B55F4            mov edx,[ebp-0xc]
000006BC  8B75F8            mov esi,[ebp-0x8]
000006BF  C7042420000000    mov dword [esp],0x20
000006C6  89542404          mov [esp+0x4],edx
000006CA  89742408          mov [esp+0x8],esi
000006CE  C744240C0F000000  mov dword [esp+0xc],0xf
000006D6  8945F0            mov [ebp-0x10],eax
000006D9  894DEC            mov [ebp-0x14],ecx
000006DC  E8CFFCFFFF        call dword 0x3b0
000006E1  8B45F4            mov eax,[ebp-0xc]
000006E4  0501000000        add eax,0x1
000006E9  8945F4            mov [ebp-0xc],eax
000006EC  E9B1FFFFFF        jmp dword 0x6a2
000006F1  E900000000        jmp dword 0x6f6
000006F6  8B45F8            mov eax,[ebp-0x8]
000006F9  0501000000        add eax,0x1
000006FE  8945F8            mov [ebp-0x8],eax
00000701  E988FFFFFF        jmp dword 0x68e
00000706  B800000000        mov eax,0x0
0000070B  C7042400000000    mov dword [esp],0x0
00000712  C744240400000000  mov dword [esp+0x4],0x0
0000071A  8945E8            mov [ebp-0x18],eax
0000071D  E85EFCFFFF        call dword 0x380
00000722  890424            mov [esp],eax
00000725  E8A6FBFFFF        call dword 0x2d0
0000072A  83C424            add esp,byte +0x24
0000072D  5E                pop esi
0000072E  5D                pop ebp
0000072F  C3                ret
00000730  4B                dec ebx
00000731  65726E            gs jc 0x7a2
00000734  656C              gs insb
00000736  206973            and [ecx+0x73],ch
00000739  207275            and [edx+0x75],dh
0000073C  6E                outsb
0000073D  6E                outsb
0000073E  696E67202E2E2E    imul ebp,[esi+0x67],dword 0x2e2e2e20
00000745  20656E            and [ebp+0x6e],ah
00000748  6A6F              push byte +0x6f
0000074A  7921              jns 0x76d
0000074C  0000              add [eax],al
0000074E  0000              add [eax],al
00000750  54                push esp
00000751  657374            gs jnc 0x7c8
00000754  696E6720707269    imul ebp,[esi+0x67],dword 0x69727020
0000075B  6E                outsb
0000075C  7420              jz 0x77e
0000075E  66756E            o16 jnz 0x7cf
00000761  6374696F          arpl [ecx+ebp*2+0x6f],si
00000765  6E                outsb
00000766  2E2E2E206966      and [cs:ecx+0x66],ch
0000076C  20746869          and [eax+ebp*2+0x69],dh
00000770  7320              jnc 0x792
00000772  6D                insd
00000773  657373            gs jnc 0x7e9
00000776  61                popad
00000777  6765206973        and [gs:bx+di+0x73],ch
0000077C  207072            and [eax+0x72],dh
0000077F  696E7465642C20    imul ebp,[esi+0x74],dword 0x202c6465
00000786  697420776F726B73  imul esi,[eax+0x77],dword 0x736b726f
0000078E  2100              and [eax],eax
00000790  0A00              or al,[eax]
00000792  0000              add [eax],al
00000794  54                push esp
00000795  686973206D        push dword 0x6d207369
0000079A  657373            gs jnc 0x810
0000079D  61                popad
0000079E  6765206973        and [gs:bx+di+0x73],ch
000007A3  206F76            and [edi+0x76],ch
000007A6  657220            gs jc 0x7c9
000007A9  7468              jz 0x813
000007AB  65206C6173        and [gs:ecx+0x73],ch
000007B0  7420              jz 0x7d2
000007B2  6C                insb
000007B3  696E65206C696D    imul ebp,[esi+0x65],dword 0x6d696c20
000007BA  6974212049662069  imul esi,[ecx+0x20],dword 0x69206649
000007C2  7420              jz 0x7e4
000007C4  69732073686F77    imul esi,[ebx+0x20],dword 0x776f6873
000007CB  6E                outsb
000007CC  2C20              sub al,0x20
000007CE  7468              jz 0x838
000007D0  65207363          and [gs:ebx+0x63],dh
000007D4  7265              jc 0x83b
000007D6  656E              gs outsb
000007D8  2D7363726F        sub eax,0x6f726373
000007DD  6C                insb
000007DE  6C                insb
000007DF  696E672066756E    imul ebp,[esi+0x67],dword 0x6e756620
000007E6  6374696F          arpl [ecx+ebp*2+0x6f],si
000007EA  6E                outsb
000007EB  206973            and [ecx+0x73],ch
000007EE  20776F            and [edi+0x6f],dh
000007F1  726B              jc 0x85e
000007F3  696E6721001400    imul ebp,[esi+0x67],dword 0x140021
000007FA  0000              add [eax],al
000007FC  0000              add [eax],al
000007FE  0000              add [eax],al
00000800  017A52            add [edx+0x52],edi
00000803  0001              add [ecx],al
00000805  7C08              jl 0x80f
00000807  011B              add [ebx],ebx
00000809  0C04              or al,0x4
0000080B  0488              add al,0x88
0000080D  0100              add [eax],eax
0000080F  0028              add [eax],ch
00000811  0000              add [eax],al
00000813  001C00            add [eax+eax],bl
00000816  0000              add [eax],al
00000818  EF                out dx,eax
00000819  F7FF              idiv edi
0000081B  FF11              call dword [ecx]
0000081D  0100              add [eax],eax
0000081F  0000              add [eax],al
00000821  44                inc esp
00000822  0C01              or al,0x1
00000824  004710            add [edi+0x10],al
00000827  0502750043        add eax,0x43007502
0000082C  0F03757C          lsl esi,[ebp+0x7c]
00000830  06                push es
00000831  02FE              add bh,dh
00000833  0C01              or al,0x1
00000835  0041C5            add [ecx-0x3b],al
00000838  43                inc ebx
00000839  0C04              or al,0x4
0000083B  0414              add al,0x14
0000083D  0000              add [eax],al
0000083F  0000              add [eax],al
00000841  0000              add [eax],al
00000843  0001              add [ecx],al
00000845  7A52              jpe 0x899
00000847  0001              add [ecx],al
00000849  7C08              jl 0x853
0000084B  011B              add [ebx],ebx
0000084D  0C04              or al,0x4
0000084F  0488              add al,0x88
00000851  0100              add [eax],eax
00000853  001C00            add [eax+eax],bl
00000856  0000              add [eax],al
00000858  1C00              sbb al,0x0
0000085A  0000              add [eax],al
0000085C  BCF8FFFF1D        mov esp,0x1dfffff8
00000861  0000              add [eax],al
00000863  0000              add [eax],al
00000865  41                inc ecx
00000866  0E                push cs
00000867  088502420D05      or [ebp+0x50d4202],al
0000086D  59                pop ecx
0000086E  C50C04            lds ecx,[esp+eax]
00000871  0400              add al,0x0
00000873  001C00            add [eax+eax],bl
00000876  0000              add [eax],al
00000878  3C00              cmp al,0x0
0000087A  0000              add [eax],al
0000087C  B9F8FFFF1F        mov ecx,0x1ffffff8
00000881  0000              add [eax],al
00000883  0000              add [eax],al
00000885  41                inc ecx
00000886  0E                push cs
00000887  088502420D05      or [ebp+0x50d4202],al
0000088D  5B                pop ebx
0000088E  C50C04            lds ecx,[esp+eax]
00000891  0400              add al,0x0
00000893  001C00            add [eax+eax],bl
00000896  0000              add [eax],al
00000898  5C                pop esp
00000899  0000              add [eax],al
0000089B  00B8F8FFFF1F      add [eax+0x1ffffff8],bh
000008A1  0000              add [eax],al
000008A3  0000              add [eax],al
000008A5  41                inc ecx
000008A6  0E                push cs
000008A7  088502420D05      or [ebp+0x50d4202],al
000008AD  5B                pop ebx
000008AE  C50C04            lds ecx,[esp+eax]
000008B1  0400              add al,0x0
000008B3  001C00            add [eax+eax],bl
000008B6  0000              add [eax],al
000008B8  7C00              jl 0x8ba
000008BA  0000              add [eax],al
000008BC  B7F8              mov bh,0xf8
000008BE  FF                db 0xff
000008BF  FF21              jmp dword [ecx]
000008C1  0000              add [eax],al
000008C3  0000              add [eax],al
000008C5  41                inc ecx
000008C6  0E                push cs
000008C7  088502420D05      or [ebp+0x50d4202],al
000008CD  5D                pop ebp
000008CE  C50C04            lds ecx,[esp+eax]
000008D1  0400              add al,0x0
000008D3  001400            add [eax+eax],dl
000008D6  0000              add [eax],al
000008D8  0000              add [eax],al
000008DA  0000              add [eax],al
000008DC  017A52            add [edx+0x52],edi
000008DF  0001              add [ecx],al
000008E1  7C08              jl 0x8eb
000008E3  011B              add [ebx],ebx
000008E5  0C04              or al,0x4
000008E7  0488              add al,0x88
000008E9  0100              add [eax],eax
000008EB  001C00            add [eax+eax],bl
000008EE  0000              add [eax],al
000008F0  1C00              sbb al,0x0
000008F2  0000              add [eax],al
000008F4  A0F8FFFF33        mov al,[0x33fffff8]
000008F9  0000              add [eax],al
000008FB  0000              add [eax],al
000008FD  41                inc ecx
000008FE  0E                push cs
000008FF  088502420D05      or [ebp+0x50d4202],al
00000905  6F                outsd
00000906  C50C04            lds ecx,[esp+eax]
00000909  0400              add al,0x0
0000090B  00                db 0x00
